; Function Attrs: mustprogress nounwind uwtable
define internal void @"_ZNSt17_Function_handlerIFvvEZN4llvm20BalancedPartitioning12BPThreadPool5asyncIZNKS2_3runERSt6vectorINS1_14BPFunctionNodeESaIS6_EEE3$_0EEvOT_EUlvE_E9_M_invokeERKSt9_Any_data"(ptr noundef nonnull readonly align 8 captures(none) dereferenceable(16) %0) #0 align 2 {
  %.val = load ptr, ptr %0, align 8
  %2 = getelementptr inbounds nuw i8, ptr %.val, i64 32
  %3 = load ptr, ptr %2, align 8
  %4 = getelementptr inbounds nuw i8, ptr %.val, i64 8
  %5 = load ptr, ptr %4, align 8
  %6 = getelementptr inbounds nuw i8, ptr %.val, i64 16
  %.sroa.0.0.copyload.i.i.i.i = load ptr, ptr %6, align 8
  %.sroa.2.0..sroa_idx.i.i.i.i = getelementptr inbounds nuw i8, ptr %.val, i64 24
  %.sroa.2.0.copyload.i.i.i.i = load ptr, ptr %.sroa.2.0..sroa_idx.i.i.i.i, align 8
  %7 = load ptr, ptr %.val, align 8
  tail call void @_ZNK4llvm20BalancedPartitioning6bisectENS_14iterator_rangeIN9__gnu_cxx17__normal_iteratorIPNS_14BPFunctionNodeESt6vectorIS4_SaIS4_EEEEEEjjjRSt8optionalINS0_12BPThreadPoolEE(ptr noundef nonnull align 8 dereferenceable(65544) %5, ptr %.sroa.0.0.copyload.i.i.i.i, ptr %.sroa.2.0.copyload.i.i.i.i, i32 noundef 0, i32 noundef 1, i32 noundef 0, ptr noundef nonnull align 8 dereferenceable(112) %7)
  %8 = getelementptr inbounds nuw i8, ptr %3, i64 96
  %9 = atomicrmw sub ptr %8, i32 1 seq_cst, align 4
  %10 = icmp eq i32 %9, 1
  br i1 %10, label %11, label %"_ZSt10__invoke_rIvRZN4llvm20BalancedPartitioning12BPThreadPool5asyncIZNKS1_3runERSt6vectorINS0_14BPFunctionNodeESaIS5_EEE3$_0EEvOT_EUlvE_JEENSt9enable_ifIX16is_invocable_r_vISA_T0_DpT1_EESA_E4typeEOSF_DpOSG_.exit"

11:                                               ; preds = %1
  %12 = getelementptr inbounds nuw i8, ptr %3, i64 8
  %13 = tail call noundef i32 @pthread_mutex_lock(ptr noundef nonnull align 8 dereferenceable(40) %12) #22
  %.not.i.i.i.i.i.i = icmp eq i32 %13, 0
  br i1 %.not.i.i.i.i.i.i, label %_ZNSt11unique_lockISt5mutexED2Ev.exit.i.i.i, label %14

14:                                               ; preds = %11
  tail call void @_ZSt20__throw_system_errori(i32 noundef %13) #23
  unreachable

_ZNSt11unique_lockISt5mutexED2Ev.exit.i.i.i:      ; preds = %11
  %15 = getelementptr inbounds nuw i8, ptr %3, i64 100
  store i8 1, ptr %15, align 4
  %16 = tail call noundef i32 @pthread_mutex_unlock(ptr noundef nonnull align 8 dereferenceable(40) %12) #22
  %17 = getelementptr inbounds nuw i8, ptr %3, i64 48
  tail call void @_ZNSt18condition_variable10notify_oneEv(ptr noundef nonnull align 8 dereferenceable(48) %17) #22
  br label %"_ZSt10__invoke_rIvRZN4llvm20BalancedPartitioning12BPThreadPool5asyncIZNKS1_3runERSt6vectorINS0_14BPFunctionNodeESaIS5_EEE3$_0EEvOT_EUlvE_JEENSt9enable_ifIX16is_invocable_r_vISA_T0_DpT1_EESA_E4typeEOSF_DpOSG_.exit"

"_ZSt10__invoke_rIvRZN4llvm20BalancedPartitioning12BPThreadPool5asyncIZNKS1_3runERSt6vectorINS0_14BPFunctionNodeESaIS5_EEE3$_0EEvOT_EUlvE_JEENSt9enable_ifIX16is_invocable_r_vISA_T0_DpT1_EESA_E4typeEOSF_DpOSG_.exit": ; preds = %1, %_ZNSt11unique_lockISt5mutexED2Ev.exit.i.i.i
  ret void
}